target datalayout = "e-m:e-p270:32:32-p271:32:32-p272:64:64-i64:64-i128:128-f80:128-n8:16:32:64-S128"
target triple = "x86_64-pc-linux-gnu"

%class.XMountPoint = type { ptr }

@AllocateHeapAt = external global ptr, align 8

; Function Attrs: mustprogress nounwind uwtable
define hidden void @_ZN11XMountPointC2EPKcPS1_(ptr noundef nonnull align 8 dereferenceable(8) %0, ptr noundef %1, ptr noundef %2) unnamed_addr #1 align 2 {
  %4 = alloca ptr, align 8
  %5 = alloca ptr, align 8
  %6 = alloca ptr, align 8
  store ptr %0, ptr %4, align 8
  store ptr %1, ptr %5, align 8
  store ptr %2, ptr %6, align 8
  %7 = load ptr, ptr %4, align 8
  %8 = load ptr, ptr @AllocateHeapAt, align 8
  %9 = icmp ne ptr %8, null
  br i1 %9, label %10, label %14

10:                                               ; preds = %3
  %11 = load ptr, ptr @AllocateHeapAt, align 8
  %12 = call noundef ptr @_ZN2os6strdupEPKc8MEMFLAGS(ptr noundef %11, i8 noundef zeroext 5)
  %13 = getelementptr inbounds %class.XMountPoint, ptr %7, i32 0, i32 0
  store ptr %12, ptr %13, align 8
  br label %19

14:                                               ; preds = %3
  %15 = load ptr, ptr %5, align 8
  %16 = load ptr, ptr %6, align 8
  %17 = call noundef ptr @_ZNK11XMountPoint15find_mountpointEPKcPS1_(ptr noundef nonnull align 8 dereferenceable(8) %7, ptr noundef %15, ptr noundef %16)
  %18 = getelementptr inbounds %class.XMountPoint, ptr %7, i32 0, i32 0
  store ptr %17, ptr %18, align 8
  br label %19

19:                                               ; preds = %14, %10
  ret void
}